target datalayout = "e-m:e-p270:32:32-p271:32:32-p272:64:64-i64:64-i128:128-f80:128-n8:16:32:64-S128"
target triple = "x86_64-pc-linux-gnu"

%struct._value_string_ext = type { ptr, i32, i32, ptr, ptr }
%struct._packet_info = type { ptr, ptr, i32, i32, %struct.nstime_t, %struct.nstime_t, %struct.nstime_t, i8, ptr, ptr, ptr, ptr, %struct._address, %struct._address, %struct._address, %struct._address, %struct._address, %struct._address, i32, ptr, i8, [3 x i8], %struct.anon, i32, i32, i32, i32, ptr, i8, ptr, ptr, i16, i16, i32, i32, i16, i32, i32, ptr, ptr, ptr, i8, i8, i16, i16, i16, i32, i16, i16, ptr, ptr, ptr, ptr, ptr, i32, i32 }
%struct.nstime_t = type { i64, i32 }
%struct._address = type { i32, i32, ptr, ptr }
%struct.anon = type { i8, [3 x i8] }

@ett_zvt = internal global i32 0, align 4
@hf_zvt_serial_char = internal global i32 0, align 4
@hf_zvt_crc = internal global i32 0, align 4
@ctrl_field_ext = internal global %struct._value_string_ext { ptr @_try_val_to_str_ext_init, i32 0, i32 13, ptr @ctrl_field, ptr @.str.110 }, align 8
@.str.99 = private unnamed_addr constant [4 x i8] c"ZVT\00", align 1
@proto_zvt = internal global i32 0, align 4
@.str.189 = private unnamed_addr constant [28 x i8] c"ZVT Kassenschnittstelle: %s\00", align 1
@.str.190 = private unnamed_addr constant [26 x i8] c"Serial Transport Protocol\00", align 1
@.str.191 = private unnamed_addr constant [26 x i8] c"Transport Protocol TCP/IP\00", align 1

; Function Attrs: null_pointer_is_valid sspstrong uwtable
define internal i32 @dissect_zvt_serial(ptr noundef %0, i32 noundef %1, ptr noundef %2, ptr noundef %3) #0 {
  %5 = alloca i32, align 4
  %6 = alloca ptr, align 8
  %7 = alloca i32, align 4
  %8 = alloca ptr, align 8
  %9 = alloca ptr, align 8
  %10 = alloca i32, align 4
  %11 = alloca i32, align 4
  %12 = alloca i32, align 4
  store ptr %0, ptr %6, align 8
  store i32 %1, ptr %7, align 4
  store ptr %2, ptr %8, align 8
  store ptr %3, ptr %9, align 8
  call void @llvm.lifetime.start.p0(i64 4, ptr %10) #7
  call void @llvm.lifetime.start.p0(i64 4, ptr %11) #7
  %13 = load i32, ptr %7, align 4
  store i32 %13, ptr %10, align 4
  %14 = load ptr, ptr %6, align 8
  %15 = load i32, ptr %7, align 4
  %16 = call i32 @tvb_reported_length_remaining(ptr noundef %14, i32 noundef %15)
  %17 = icmp eq i32 %16, 1
  br i1 %17, label %18, label %29

18:                                               ; preds = %4
  %19 = load ptr, ptr %9, align 8
  %20 = load i32, ptr @hf_zvt_serial_char, align 4
  %21 = load ptr, ptr %6, align 8
  %22 = load i32, ptr %7, align 4
  %23 = call ptr @proto_tree_add_item(ptr noundef %19, i32 noundef %20, ptr noundef %21, i32 noundef %22, i32 noundef 1, i32 noundef 0)
  %24 = load i32, ptr %7, align 4
  %25 = add i32 %24, 1
  store i32 %25, ptr %7, align 4
  %26 = load i32, ptr %7, align 4
  %27 = load i32, ptr %10, align 4
  %28 = sub i32 %26, %27
  store i32 %28, ptr %5, align 4
  store i32 1, ptr %12, align 4
  br label %81

29:                                               ; preds = %4
  %30 = load ptr, ptr %9, align 8
  %31 = load i32, ptr @hf_zvt_serial_char, align 4
  %32 = load ptr, ptr %6, align 8
  %33 = load i32, ptr %7, align 4
  %34 = call ptr @proto_tree_add_item(ptr noundef %30, i32 noundef %31, ptr noundef %32, i32 noundef %33, i32 noundef 1, i32 noundef 0)
  %35 = load i32, ptr %7, align 4
  %36 = add i32 %35, 1
  store i32 %36, ptr %7, align 4
  %37 = load ptr, ptr %9, align 8
  %38 = load i32, ptr @hf_zvt_serial_char, align 4
  %39 = load ptr, ptr %6, align 8
  %40 = load i32, ptr %7, align 4
  %41 = call ptr @proto_tree_add_item(ptr noundef %37, i32 noundef %38, ptr noundef %39, i32 noundef %40, i32 noundef 1, i32 noundef 0)
  %42 = load i32, ptr %7, align 4
  %43 = add i32 %42, 1
  store i32 %43, ptr %7, align 4
  %44 = load ptr, ptr %6, align 8
  %45 = load i32, ptr %7, align 4
  %46 = load ptr, ptr %8, align 8
  %47 = load ptr, ptr %9, align 8
  %48 = call i32 @dissect_zvt_apdu(ptr noundef %44, i32 noundef %45, ptr noundef %46, ptr noundef %47)
  store i32 %48, ptr %11, align 4
  %49 = load i32, ptr %11, align 4
  %50 = icmp slt i32 %49, 0
  br i1 %50, label %51, label %53

51:                                               ; preds = %29
  %52 = load i32, ptr %11, align 4
  store i32 %52, ptr %5, align 4
  store i32 1, ptr %12, align 4
  br label %81

53:                                               ; preds = %29
  %54 = load i32, ptr %11, align 4
  %55 = load i32, ptr %7, align 4
  %56 = add i32 %55, %54
  store i32 %56, ptr %7, align 4
  %57 = load ptr, ptr %9, align 8
  %58 = load i32, ptr @hf_zvt_serial_char, align 4
  %59 = load ptr, ptr %6, align 8
  %60 = load i32, ptr %7, align 4
  %61 = call ptr @proto_tree_add_item(ptr noundef %57, i32 noundef %58, ptr noundef %59, i32 noundef %60, i32 noundef 1, i32 noundef 0)
  %62 = load i32, ptr %7, align 4
  %63 = add i32 %62, 1
  store i32 %63, ptr %7, align 4
  %64 = load ptr, ptr %9, align 8
  %65 = load i32, ptr @hf_zvt_serial_char, align 4
  %66 = load ptr, ptr %6, align 8
  %67 = load i32, ptr %7, align 4
  %68 = call ptr @proto_tree_add_item(ptr noundef %64, i32 noundef %65, ptr noundef %66, i32 noundef %67, i32 noundef 1, i32 noundef 0)
  %69 = load i32, ptr %7, align 4
  %70 = add i32 %69, 1
  store i32 %70, ptr %7, align 4
  %71 = load ptr, ptr %9, align 8
  %72 = load i32, ptr @hf_zvt_crc, align 4
  %73 = load ptr, ptr %6, align 8
  %74 = load i32, ptr %7, align 4
  %75 = call ptr @proto_tree_add_item(ptr noundef %71, i32 noundef %72, ptr noundef %73, i32 noundef %74, i32 noundef 2, i32 noundef -2147483648)
  %76 = load i32, ptr %7, align 4
  %77 = add i32 %76, 2
  store i32 %77, ptr %7, align 4
  %78 = load i32, ptr %7, align 4
  %79 = load i32, ptr %10, align 4
  %80 = sub i32 %78, %79
  store i32 %80, ptr %5, align 4
  store i32 1, ptr %12, align 4
  br label %81

81:                                               ; preds = %53, %51, %18
  call void @llvm.lifetime.end.p0(i64 4, ptr %11) #7
  call void @llvm.lifetime.end.p0(i64 4, ptr %10) #7
  %82 = load i32, ptr %5, align 4
  ret i32 %82
}

; Function Attrs: null_pointer_is_valid sspstrong uwtable
define internal zeroext i1 @valid_ctrl_field(ptr noundef %0, i32 noundef %1) #0 {
  %3 = alloca i1, align 1
  %4 = alloca ptr, align 8
  %5 = alloca i32, align 4
  store ptr %0, ptr %4, align 8
  store i32 %1, ptr %5, align 4
  %6 = load ptr, ptr %4, align 8
  %7 = load i32, ptr %5, align 4
  %8 = call zeroext i8 @tvb_get_uint8(ptr noundef %6, i32 noundef %7)
  %9 = zext i8 %8 to i32
  %10 = icmp eq i32 %9, 128
  br i1 %10, label %24, label %11

11:                                               ; preds = %2
  %12 = load ptr, ptr %4, align 8
  %13 = load i32, ptr %5, align 4
  %14 = call zeroext i8 @tvb_get_uint8(ptr noundef %12, i32 noundef %13)
  %15 = zext i8 %14 to i32
  %16 = icmp eq i32 %15, 132
  br i1 %16, label %24, label %17

17:                                               ; preds = %11
  %18 = load ptr, ptr %4, align 8
  %19 = load i32, ptr %5, align 4
  %20 = call zeroext i16 @tvb_get_ntohs(ptr noundef %18, i32 noundef %19)
  %21 = zext i16 %20 to i32
  %22 = call ptr @try_val_to_str_ext(i32 noundef %21, ptr noundef @ctrl_field_ext)
  %23 = icmp ne ptr %22, null
  br i1 %23, label %24, label %25

24:                                               ; preds = %17, %11, %2
  store i1 true, ptr %3, align 1
  br label %26

25:                                               ; preds = %17
  store i1 false, ptr %3, align 1
  br label %26

26:                                               ; preds = %25, %24
  %27 = load i1, ptr %3, align 1
  ret i1 %27
}

; Function Attrs: null_pointer_is_valid sspstrong uwtable
define internal i32 @dissect_zvt(ptr noundef %0, ptr noundef %1, ptr noundef %2, ptr noundef %3) #0 {
  %5 = alloca i32, align 4
  %6 = alloca ptr, align 8
  %7 = alloca ptr, align 8
  %8 = alloca ptr, align 8
  %9 = alloca ptr, align 8
  %10 = alloca i32, align 4
  %11 = alloca ptr, align 8
  %12 = alloca ptr, align 8
  %13 = alloca i8, align 1
  %14 = alloca i32, align 4
  store ptr %0, ptr %6, align 8
  store ptr %1, ptr %7, align 8
  store ptr %2, ptr %8, align 8
  store ptr %3, ptr %9, align 8
  call void @llvm.lifetime.start.p0(i64 4, ptr %10) #7
  store i32 0, ptr %10, align 4
  call void @llvm.lifetime.start.p0(i64 8, ptr %11) #7
  call void @llvm.lifetime.start.p0(i64 8, ptr %12) #7
  call void @llvm.lifetime.start.p0(i64 1, ptr %13) #7
  %15 = load ptr, ptr %6, align 8
  %16 = call i32 @tvb_captured_length(ptr noundef %15)
  %17 = icmp eq i32 %16, 1
  br i1 %17, label %18, label %29

18:                                               ; preds = %4
  %19 = load ptr, ptr %6, align 8
  %20 = call zeroext i8 @tvb_get_uint8(ptr noundef %19, i32 noundef 0)
  %21 = zext i8 %20 to i32
  %22 = icmp eq i32 %21, 6
  br i1 %22, label %28, label %23

23:                                               ; preds = %18
  %24 = load ptr, ptr %6, align 8
  %25 = call zeroext i8 @tvb_get_uint8(ptr noundef %24, i32 noundef 0)
  %26 = zext i8 %25 to i32
  %27 = icmp eq i32 %26, 21
  br i1 %27, label %28, label %29

28:                                               ; preds = %23, %18
  store i8 1, ptr %13, align 1
  br label %55

29:                                               ; preds = %23, %4
  %30 = load ptr, ptr %6, align 8
  %31 = call i32 @tvb_captured_length(ptr noundef %30)
  %32 = icmp uge i32 %31, 2
  br i1 %32, label %33, label %44

33:                                               ; preds = %29
  %34 = load ptr, ptr %6, align 8
  %35 = call zeroext i8 @tvb_get_uint8(ptr noundef %34, i32 noundef 0)
  %36 = zext i8 %35 to i32
  %37 = icmp eq i32 %36, 16
  br i1 %37, label %38, label %44

38:                                               ; preds = %33
  %39 = load ptr, ptr %6, align 8
  %40 = call zeroext i8 @tvb_get_uint8(ptr noundef %39, i32 noundef 1)
  %41 = zext i8 %40 to i32
  %42 = icmp eq i32 %41, 2
  br i1 %42, label %43, label %44

43:                                               ; preds = %38
  store i8 1, ptr %13, align 1
  br label %54

44:                                               ; preds = %38, %33, %29
  %45 = load ptr, ptr %6, align 8
  %46 = call i32 @tvb_captured_length(ptr noundef %45)
  %47 = icmp uge i32 %46, 3
  br i1 %47, label %48, label %52

48:                                               ; preds = %44
  %49 = load ptr, ptr %6, align 8
  %50 = call zeroext i1 @valid_ctrl_field(ptr noundef %49, i32 noundef 0)
  br i1 %50, label %51, label %52

51:                                               ; preds = %48
  store i8 0, ptr %13, align 1
  br label %53

52:                                               ; preds = %48, %44
  store i32 0, ptr %5, align 4
  store i32 1, ptr %14, align 4
  br label %94

53:                                               ; preds = %51
  br label %54

54:                                               ; preds = %53, %43
  br label %55

55:                                               ; preds = %54, %28
  %56 = load ptr, ptr %7, align 8
  %57 = getelementptr inbounds nuw %struct._packet_info, ptr %56, i32 0, i32 1
  %58 = load ptr, ptr %57, align 8
  call void @col_set_str(ptr noundef %58, i32 noundef 35, ptr noundef @.str.99)
  %59 = load ptr, ptr %7, align 8
  %60 = getelementptr inbounds nuw %struct._packet_info, ptr %59, i32 0, i32 1
  %61 = load ptr, ptr %60, align 8
  call void @col_clear(ptr noundef %61, i32 noundef 25)
  %62 = load ptr, ptr %8, align 8
  %63 = load i32, ptr @proto_zvt, align 4
  %64 = load ptr, ptr %6, align 8
  %65 = load i8, ptr %13, align 1, !range !10, !noundef !11
  %66 = trunc i8 %65 to i1
  %67 = select i1 %66, ptr @.str.190, ptr @.str.191
  %68 = call ptr (ptr, i32, ptr, i32, i32, ptr, ...) @proto_tree_add_protocol_format(ptr noundef %62, i32 noundef %63, ptr noundef %64, i32 noundef 0, i32 noundef -1, ptr noundef @.str.189, ptr noundef %67)
  store ptr %68, ptr %11, align 8
  %69 = load ptr, ptr %11, align 8
  %70 = load i32, ptr @ett_zvt, align 4
  %71 = call ptr @proto_item_add_subtree(ptr noundef %69, i32 noundef %70)
  store ptr %71, ptr %12, align 8
  %72 = load i8, ptr %13, align 1, !range !10, !noundef !11
  %73 = trunc i8 %72 to i1
  br i1 %73, label %74, label %79

74:                                               ; preds = %55
  %75 = load ptr, ptr %6, align 8
  %76 = load ptr, ptr %7, align 8
  %77 = load ptr, ptr %12, align 8
  %78 = call i32 @dissect_zvt_serial(ptr noundef %75, i32 noundef 0, ptr noundef %76, ptr noundef %77)
  store i32 %78, ptr %10, align 4
  br label %84

79:                                               ; preds = %55
  %80 = load ptr, ptr %6, align 8
  %81 = load ptr, ptr %7, align 8
  %82 = load ptr, ptr %12, align 8
  %83 = call i32 @dissect_zvt_apdu(ptr noundef %80, i32 noundef 0, ptr noundef %81, ptr noundef %82)
  store i32 %83, ptr %10, align 4
  br label %84

84:                                               ; preds = %79, %74
  %85 = load i32, ptr %10, align 4
  %86 = icmp slt i32 %85, 0
  br i1 %86, label %87, label %90

87:                                               ; preds = %84
  %88 = load ptr, ptr %6, align 8
  %89 = call i32 @tvb_captured_length(ptr noundef %88)
  store i32 %89, ptr %10, align 4
  br label %90

90:                                               ; preds = %87, %84
  %91 = load ptr, ptr %11, align 8
  %92 = load i32, ptr %10, align 4
  call void @proto_item_set_len(ptr noundef %91, i32 noundef %92)
  %93 = load i32, ptr %10, align 4
  store i32 %93, ptr %5, align 4
  store i32 1, ptr %14, align 4
  br label %94

94:                                               ; preds = %90, %52
  call void @llvm.lifetime.end.p0(i64 1, ptr %13) #7
  call void @llvm.lifetime.end.p0(i64 8, ptr %12) #7
  call void @llvm.lifetime.end.p0(i64 8, ptr %11) #7
  call void @llvm.lifetime.end.p0(i64 4, ptr %10) #7
  %95 = load i32, ptr %5, align 4
  ret i32 %95
}