; Function Attrs: null_pointer_is_valid sspstrong uwtable
define internal noundef i32 @dissect_zvt(ptr noundef %0, ptr noundef %1, ptr noundef %2, ptr readnone captures(none) %3) #0 {
  %5 = tail call i32 @tvb_captured_length(ptr noundef %0)
  %6 = icmp eq i32 %5, 1
  br i1 %6, label %7, label %13

7:                                                ; preds = %4
  %8 = tail call zeroext i8 @tvb_get_uint8(ptr noundef %0, i32 noundef 0)
  %9 = icmp eq i8 %8, 6
  br i1 %9, label %valid_ctrl_field.exit.thread, label %10

10:                                               ; preds = %7
  %11 = tail call zeroext i8 @tvb_get_uint8(ptr noundef %0, i32 noundef 0)
  %12 = icmp eq i8 %11, 21
  br i1 %12, label %valid_ctrl_field.exit.thread, label %13

13:                                               ; preds = %10, %4
  %14 = tail call i32 @tvb_captured_length(ptr noundef %0)
  %15 = icmp ugt i32 %14, 1
  br i1 %15, label %16, label %22

16:                                               ; preds = %13
  %17 = tail call zeroext i8 @tvb_get_uint8(ptr noundef %0, i32 noundef 0)
  %18 = icmp eq i8 %17, 16
  br i1 %18, label %19, label %22

19:                                               ; preds = %16
  %20 = tail call zeroext i8 @tvb_get_uint8(ptr noundef %0, i32 noundef 1)
  %21 = icmp eq i8 %20, 2
  br i1 %21, label %valid_ctrl_field.exit.thread, label %22

22:                                               ; preds = %19, %16, %13
  %23 = tail call i32 @tvb_captured_length(ptr noundef %0)
  %24 = icmp ugt i32 %23, 2
  br i1 %24, label %25, label %65

25:                                               ; preds = %22
  %26 = tail call zeroext i8 @tvb_get_uint8(ptr noundef %0, i32 noundef 0)
  %27 = icmp eq i8 %26, -128
  br i1 %27, label %valid_ctrl_field.exit.thread, label %28

28:                                               ; preds = %25
  %29 = tail call zeroext i8 @tvb_get_uint8(ptr noundef %0, i32 noundef 0)
  %30 = icmp eq i8 %29, -124
  br i1 %30, label %valid_ctrl_field.exit.thread, label %valid_ctrl_field.exit

valid_ctrl_field.exit:                            ; preds = %28
  %31 = tail call zeroext i16 @tvb_get_ntohs(ptr noundef %0, i32 noundef 0)
  %32 = zext i16 %31 to i32
  %33 = tail call ptr @try_val_to_str_ext(i32 noundef %32, ptr noundef nonnull @ctrl_field_ext)
  %.not.i.not = icmp eq ptr %33, null
  br i1 %.not.i.not, label %65, label %valid_ctrl_field.exit.thread

valid_ctrl_field.exit.thread:                     ; preds = %25, %28, %valid_ctrl_field.exit, %19, %7, %10
  %.0 = phi i1 [ true, %10 ], [ true, %7 ], [ true, %19 ], [ false, %valid_ctrl_field.exit ], [ false, %28 ], [ false, %25 ]
  %34 = getelementptr inbounds nuw i8, ptr %1, i64 8
  %35 = load ptr, ptr %34, align 8
  tail call void @col_set_str(ptr noundef %35, i32 noundef 35, ptr noundef nonnull @.str.99)
  %36 = load ptr, ptr %34, align 8
  tail call void @col_clear(ptr noundef %36, i32 noundef 25)
  %37 = load i32, ptr @proto_zvt, align 4
  %spec.select = select i1 %.0, ptr @.str.190, ptr @.str.191
  %38 = tail call ptr (ptr, i32, ptr, i32, i32, ptr, ...) @proto_tree_add_protocol_format(ptr noundef %2, i32 noundef %37, ptr noundef %0, i32 noundef 0, i32 noundef -1, ptr noundef nonnull @.str.189, ptr noundef nonnull %spec.select)
  %39 = load i32, ptr @ett_zvt, align 4
  %40 = tail call ptr @proto_item_add_subtree(ptr noundef %38, i32 noundef %39)
  br i1 %.0, label %41, label %dissect_zvt_serial.exit

41:                                               ; preds = %valid_ctrl_field.exit.thread
  %42 = tail call i32 @tvb_reported_length_remaining(ptr noundef %0, i32 noundef 0)
  %43 = icmp eq i32 %42, 1
  %44 = load i32, ptr @hf_zvt_serial_char, align 4
  %45 = tail call ptr @proto_tree_add_item(ptr noundef %40, i32 noundef %44, ptr noundef %0, i32 noundef 0, i32 noundef 1, i32 noundef 0)
  br i1 %43, label %dissect_zvt_serial.exit.thread, label %46

46:                                               ; preds = %41
  %47 = load i32, ptr @hf_zvt_serial_char, align 4
  %48 = tail call ptr @proto_tree_add_item(ptr noundef %40, i32 noundef %47, ptr noundef %0, i32 noundef 1, i32 noundef 1, i32 noundef 0)
  %49 = tail call fastcc i32 @dissect_zvt_apdu(ptr noundef %0, i32 noundef 2, ptr noundef %1, ptr noundef %40)
  %50 = icmp slt i32 %49, 0
  br i1 %50, label %dissect_zvt_serial.exit.thread31, label %51

51:                                               ; preds = %46
  %52 = add nuw nsw i32 %49, 2
  %53 = load i32, ptr @hf_zvt_serial_char, align 4
  %54 = tail call ptr @proto_tree_add_item(ptr noundef %40, i32 noundef %53, ptr noundef %0, i32 noundef %52, i32 noundef 1, i32 noundef 0)
  %55 = add nuw nsw i32 %49, 3
  %56 = load i32, ptr @hf_zvt_serial_char, align 4
  %57 = tail call ptr @proto_tree_add_item(ptr noundef %40, i32 noundef %56, ptr noundef %0, i32 noundef %55, i32 noundef 1, i32 noundef 0)
  %58 = add nuw nsw i32 %49, 4
  %59 = load i32, ptr @hf_zvt_crc, align 4
  %60 = tail call ptr @proto_tree_add_item(ptr noundef %40, i32 noundef %59, ptr noundef %0, i32 noundef %58, i32 noundef 2, i32 noundef -2147483648)
  %61 = add nuw nsw i32 %49, 6
  br label %dissect_zvt_serial.exit.thread

dissect_zvt_serial.exit:                          ; preds = %valid_ctrl_field.exit.thread
  %62 = tail call fastcc i32 @dissect_zvt_apdu(ptr noundef %0, i32 noundef 0, ptr noundef %1, ptr noundef %40)
  %63 = icmp slt i32 %62, 0
  br i1 %63, label %dissect_zvt_serial.exit.thread31, label %dissect_zvt_serial.exit.thread

dissect_zvt_serial.exit.thread31:                 ; preds = %46, %dissect_zvt_serial.exit
  %64 = tail call i32 @tvb_captured_length(ptr noundef %0)
  br label %dissect_zvt_serial.exit.thread

dissect_zvt_serial.exit.thread:                   ; preds = %41, %51, %dissect_zvt_serial.exit.thread31, %dissect_zvt_serial.exit
  %.1 = phi i32 [ %64, %dissect_zvt_serial.exit.thread31 ], [ %62, %dissect_zvt_serial.exit ], [ 1, %41 ], [ %61, %51 ]
  tail call void @proto_item_set_len(ptr noundef %38, i32 noundef %.1)
  br label %65

65:                                               ; preds = %22, %valid_ctrl_field.exit, %dissect_zvt_serial.exit.thread
  %.026 = phi i32 [ %.1, %dissect_zvt_serial.exit.thread ], [ 0, %valid_ctrl_field.exit ], [ 0, %22 ]
  ret i32 %.026
}